target datalayout = "e-m:e-p270:32:32-p271:32:32-p272:64:64-i64:64-i128:128-f80:128-n8:16:32:64-S128"
target triple = "x86_64-unknown-linux-gnu"

%struct.VFIODevice = type { %struct.anon, %struct.anon.0, %struct.anon.1, ptr, ptr, ptr, ptr, ptr, i32, i32, i8, i8, i8, i8, i32, ptr, i32, i32, i32, ptr, ptr, i32, i8, i8 }
%struct.anon = type { ptr, ptr }
%struct.anon.0 = type { ptr, ptr }
%struct.anon.1 = type { ptr, ptr }
%struct.VFIOMigration = type { ptr, ptr, %struct.Notifier, i32, i32, ptr, i64, i64, i64, i64, i8 }
%struct.Notifier = type { ptr, %struct.anon.2 }
%struct.anon.2 = type { ptr, ptr }

@.str = private unnamed_addr constant [28 x i8] c"../qemu/hw/vfio/migration.c\00", align 1
@.str.6 = private unnamed_addr constant [11 x i8] c"vmstate-if\00", align 1
@.str.8 = private unnamed_addr constant [5 x i8] c"vfio\00", align 1
@__func__.vfio_migration_deinit = private unnamed_addr constant [22 x i8] c"vfio_migration_deinit\00", align 1

; Function Attrs: nounwind sspstrong uwtable
define internal void @vfio_migration_free(ptr noundef %vbasedev) #0 {
entry:
  %vbasedev.addr = alloca ptr, align 8
  store ptr %vbasedev, ptr %vbasedev.addr, align 8
  %0 = load ptr, ptr %vbasedev.addr, align 8
  %migration = getelementptr inbounds %struct.VFIODevice, ptr %0, i32 0, i32 19
  %1 = load ptr, ptr %migration, align 8
  call void @g_free(ptr noundef %1)
  %2 = load ptr, ptr %vbasedev.addr, align 8
  %migration1 = getelementptr inbounds %struct.VFIODevice, ptr %2, i32 0, i32 19
  store ptr null, ptr %migration1, align 8
  ret void
}

; Function Attrs: nounwind sspstrong uwtable
define internal void @vfio_migration_deinit(ptr noundef %vbasedev) #0 {
entry:
  %vbasedev.addr = alloca ptr, align 8
  %migration = alloca ptr, align 8
  store ptr %vbasedev, ptr %vbasedev.addr, align 8
  %0 = load ptr, ptr %vbasedev.addr, align 8
  %migration1 = getelementptr inbounds %struct.VFIODevice, ptr %0, i32 0, i32 19
  %1 = load ptr, ptr %migration1, align 8
  store ptr %1, ptr %migration, align 8
  %2 = load ptr, ptr %migration, align 8
  %migration_state = getelementptr inbounds %struct.VFIOMigration, ptr %2, i32 0, i32 2
  call void @migration_remove_notifier(ptr noundef %migration_state)
  %3 = load ptr, ptr %migration, align 8
  %vm_state = getelementptr inbounds %struct.VFIOMigration, ptr %3, i32 0, i32 1
  %4 = load ptr, ptr %vm_state, align 8
  call void @qemu_del_vm_change_state_handler(ptr noundef %4)
  %5 = load ptr, ptr %vbasedev.addr, align 8
  %dev = getelementptr inbounds %struct.VFIODevice, ptr %5, i32 0, i32 7
  %6 = load ptr, ptr %dev, align 8
  %call = call ptr @object_dynamic_cast_assert(ptr noundef %6, ptr noundef @.str.6, ptr noundef @.str, i32 noundef 887, ptr noundef @__func__.vfio_migration_deinit)
  %7 = load ptr, ptr %vbasedev.addr, align 8
  call void @unregister_savevm(ptr noundef %call, ptr noundef @.str.8, ptr noundef %7)
  %8 = load ptr, ptr %vbasedev.addr, align 8
  call void @vfio_migration_free(ptr noundef %8)
  call void @vfio_unblock_multiple_devices_migration()
  ret void
}

; Function Attrs: nounwind sspstrong uwtable
define dso_local void @vfio_migration_exit(ptr noundef %vbasedev) #0 {
entry:
  %vbasedev.addr = alloca ptr, align 8
  store ptr %vbasedev, ptr %vbasedev.addr, align 8
  %0 = load ptr, ptr %vbasedev.addr, align 8
  %migration = getelementptr inbounds %struct.VFIODevice, ptr %0, i32 0, i32 19
  %1 = load ptr, ptr %migration, align 8
  %tobool = icmp ne ptr %1, null
  br i1 %tobool, label %if.then, label %if.end

if.then:                                          ; preds = %entry
  %2 = load ptr, ptr %vbasedev.addr, align 8
  call void @vfio_migration_deinit(ptr noundef %2)
  br label %if.end

if.end:                                           ; preds = %if.then, %entry
  %3 = load ptr, ptr %vbasedev.addr, align 8
  %migration_blocker = getelementptr inbounds %struct.VFIODevice, ptr %3, i32 0, i32 20
  call void @migrate_del_blocker(ptr noundef %migration_blocker)
  ret void
}