; Function Attrs: nounwind sspstrong uwtable
define dso_local void @vfio_migration_exit(ptr noundef %vbasedev) local_unnamed_addr #2 {
entry:
  %migration = getelementptr inbounds nuw i8, ptr %vbasedev, i64 128
  %0 = load ptr, ptr %migration, align 8
  %tobool.not = icmp eq ptr %0, null
  br i1 %tobool.not, label %if.end, label %if.then

if.then:                                          ; preds = %entry
  %migration_state.i = getelementptr inbounds nuw i8, ptr %0, i64 16
  tail call void @migration_remove_notifier(ptr noundef nonnull %migration_state.i) #16
  %vm_state.i = getelementptr inbounds nuw i8, ptr %0, i64 8
  %1 = load ptr, ptr %vm_state.i, align 8
  tail call void @qemu_del_vm_change_state_handler(ptr noundef %1) #16
  %dev.i = getelementptr inbounds nuw i8, ptr %vbasedev, i64 80
  %2 = load ptr, ptr %dev.i, align 8
  %call.i = tail call ptr @object_dynamic_cast_assert(ptr noundef %2, ptr noundef nonnull @.str.6, ptr noundef nonnull @.str, i32 noundef 887, ptr noundef nonnull @__func__.vfio_migration_deinit) #16
  tail call void @unregister_savevm(ptr noundef %call.i, ptr noundef nonnull @.str.8, ptr noundef nonnull %vbasedev) #16
  %3 = load ptr, ptr %migration, align 8
  tail call void @g_free(ptr noundef %3) #16
  store ptr null, ptr %migration, align 8
  tail call void @vfio_unblock_multiple_devices_migration() #16
  br label %if.end

if.end:                                           ; preds = %if.then, %entry
  %migration_blocker = getelementptr inbounds nuw i8, ptr %vbasedev, i64 136
  tail call void @migrate_del_blocker(ptr noundef nonnull %migration_blocker) #16
  ret void
}